target datalayout = "e-m:e-p270:32:32-p271:32:32-p272:64:64-i64:64-i128:128-f80:128-n8:16:32:64-S128"
target triple = "x86_64-pc-linux-gnu"

%struct.ExtraMetaList = type { ptr, ptr }
%struct.ID3v2ExtraMeta = type { ptr, ptr, %union.anon }
%union.anon = type { %struct.ID3v2ExtraMetaGEOB }
%struct.ID3v2ExtraMetaGEOB = type { i32, ptr, ptr, ptr, ptr }
%struct.ID3v2ExtraMetaPRIV = type { ptr, ptr, i32 }

@.str.69 = private unnamed_addr constant [5 x i8] c"PRIV\00", align 1

; Function Attrs: nounwind uwtable
define internal void @free_priv(ptr noundef %0) #0 {
  %2 = alloca ptr, align 8
  %3 = alloca ptr, align 8
  store ptr %0, ptr %2, align 8, !tbaa !108
  call void @llvm.lifetime.start.p0(i64 8, ptr %3) #10
  %4 = load ptr, ptr %2, align 8, !tbaa !108
  store ptr %4, ptr %3, align 8, !tbaa !84
  %5 = load ptr, ptr %3, align 8, !tbaa !84
  %6 = getelementptr inbounds nuw %struct.ID3v2ExtraMetaPRIV, ptr %5, i32 0, i32 0
  call void @av_freep(ptr noundef %6)
  %7 = load ptr, ptr %3, align 8, !tbaa !84
  %8 = getelementptr inbounds nuw %struct.ID3v2ExtraMetaPRIV, ptr %7, i32 0, i32 1
  call void @av_freep(ptr noundef %8)
  call void @llvm.lifetime.end.p0(i64 8, ptr %3) #10
  ret void
}

; Function Attrs: nounwind uwtable
define internal void @list_append(ptr noundef %0, ptr noundef %1) #0 {
  %3 = alloca ptr, align 8
  %4 = alloca ptr, align 8
  store ptr %0, ptr %3, align 8, !tbaa !23
  store ptr %1, ptr %4, align 8, !tbaa !92
  %5 = load ptr, ptr %4, align 8, !tbaa !92
  %6 = getelementptr inbounds nuw %struct.ExtraMetaList, ptr %5, i32 0, i32 1
  %7 = load ptr, ptr %6, align 8, !tbaa !130
  %8 = icmp ne ptr %7, null
  br i1 %8, label %9, label %15

9:                                                ; preds = %2
  %10 = load ptr, ptr %3, align 8, !tbaa !23
  %11 = load ptr, ptr %4, align 8, !tbaa !92
  %12 = getelementptr inbounds nuw %struct.ExtraMetaList, ptr %11, i32 0, i32 1
  %13 = load ptr, ptr %12, align 8, !tbaa !130
  %14 = getelementptr inbounds nuw %struct.ID3v2ExtraMeta, ptr %13, i32 0, i32 1
  store ptr %10, ptr %14, align 8, !tbaa !47
  br label %19

15:                                               ; preds = %2
  %16 = load ptr, ptr %3, align 8, !tbaa !23
  %17 = load ptr, ptr %4, align 8, !tbaa !92
  %18 = getelementptr inbounds nuw %struct.ExtraMetaList, ptr %17, i32 0, i32 0
  store ptr %16, ptr %18, align 8, !tbaa !27
  br label %19

19:                                               ; preds = %15, %9
  %20 = load ptr, ptr %3, align 8, !tbaa !23
  %21 = load ptr, ptr %4, align 8, !tbaa !92
  %22 = getelementptr inbounds nuw %struct.ExtraMetaList, ptr %21, i32 0, i32 1
  store ptr %20, ptr %22, align 8, !tbaa !130
  ret void
}

; Function Attrs: nounwind uwtable
define internal void @read_priv(ptr noundef %0, ptr noundef %1, i32 noundef %2, ptr noundef %3, ptr noundef %4, i32 noundef %5) #0 {
  %7 = alloca ptr, align 8
  %8 = alloca ptr, align 8
  %9 = alloca i32, align 4
  %10 = alloca ptr, align 8
  %11 = alloca ptr, align 8
  %12 = alloca i32, align 4
  %13 = alloca ptr, align 8
  %14 = alloca ptr, align 8
  %15 = alloca i32, align 4
  store ptr %0, ptr %7, align 8, !tbaa !19
  store ptr %1, ptr %8, align 8, !tbaa !12
  store i32 %2, ptr %9, align 4, !tbaa !10
  store ptr %3, ptr %10, align 8, !tbaa !4
  store ptr %4, ptr %11, align 8, !tbaa !92
  store i32 %5, ptr %12, align 4, !tbaa !10
  call void @llvm.lifetime.start.p0(i64 8, ptr %13) #10
  call void @llvm.lifetime.start.p0(i64 8, ptr %14) #10
  %16 = call noalias ptr @av_mallocz(i64 noundef 56)
  store ptr %16, ptr %13, align 8, !tbaa !23
  %17 = load ptr, ptr %13, align 8, !tbaa !23
  %18 = icmp ne ptr %17, null
  br i1 %18, label %20, label %19

19:                                               ; preds = %6
  store i32 1, ptr %15, align 4
  br label %65

20:                                               ; preds = %6
  %21 = load ptr, ptr %13, align 8, !tbaa !23
  %22 = getelementptr inbounds nuw %struct.ID3v2ExtraMeta, ptr %21, i32 0, i32 2
  store ptr %22, ptr %14, align 8, !tbaa !84
  %23 = load ptr, ptr %7, align 8, !tbaa !19
  %24 = load ptr, ptr %8, align 8, !tbaa !12
  %25 = load ptr, ptr %14, align 8, !tbaa !84
  %26 = getelementptr inbounds nuw %struct.ID3v2ExtraMetaPRIV, ptr %25, i32 0, i32 0
  %27 = call i32 @decode_str(ptr noundef %23, ptr noundef %24, i32 noundef 0, ptr noundef %26, ptr noundef %9)
  %28 = icmp slt i32 %27, 0
  br i1 %28, label %29, label %30

29:                                               ; preds = %20
  br label %63

30:                                               ; preds = %20
  %31 = load i32, ptr %9, align 4, !tbaa !10
  %32 = sext i32 %31 to i64
  %33 = call noalias ptr @av_malloc(i64 noundef %32)
  %34 = load ptr, ptr %14, align 8, !tbaa !84
  %35 = getelementptr inbounds nuw %struct.ID3v2ExtraMetaPRIV, ptr %34, i32 0, i32 1
  store ptr %33, ptr %35, align 8, !tbaa !89
  %36 = load ptr, ptr %14, align 8, !tbaa !84
  %37 = getelementptr inbounds nuw %struct.ID3v2ExtraMetaPRIV, ptr %36, i32 0, i32 1
  %38 = load ptr, ptr %37, align 8, !tbaa !89
  %39 = icmp ne ptr %38, null
  br i1 %39, label %41, label %40

40:                                               ; preds = %30
  br label %63

41:                                               ; preds = %30
  %42 = load i32, ptr %9, align 4, !tbaa !10
  %43 = load ptr, ptr %14, align 8, !tbaa !84
  %44 = getelementptr inbounds nuw %struct.ID3v2ExtraMetaPRIV, ptr %43, i32 0, i32 2
  store i32 %42, ptr %44, align 8, !tbaa !88
  %45 = load ptr, ptr %8, align 8, !tbaa !12
  %46 = load ptr, ptr %14, align 8, !tbaa !84
  %47 = getelementptr inbounds nuw %struct.ID3v2ExtraMetaPRIV, ptr %46, i32 0, i32 1
  %48 = load ptr, ptr %47, align 8, !tbaa !89
  %49 = load ptr, ptr %14, align 8, !tbaa !84
  %50 = getelementptr inbounds nuw %struct.ID3v2ExtraMetaPRIV, ptr %49, i32 0, i32 2
  %51 = load i32, ptr %50, align 8, !tbaa !88
  %52 = call i32 @avio_read(ptr noundef %45, ptr noundef %48, i32 noundef %51)
  %53 = load ptr, ptr %14, align 8, !tbaa !84
  %54 = getelementptr inbounds nuw %struct.ID3v2ExtraMetaPRIV, ptr %53, i32 0, i32 2
  %55 = load i32, ptr %54, align 8, !tbaa !88
  %56 = icmp ne i32 %52, %55
  br i1 %56, label %57, label %58

57:                                               ; preds = %41
  br label %63

58:                                               ; preds = %41
  %59 = load ptr, ptr %13, align 8, !tbaa !23
  %60 = getelementptr inbounds nuw %struct.ID3v2ExtraMeta, ptr %59, i32 0, i32 0
  store ptr @.str.69, ptr %60, align 8, !tbaa !41
  %61 = load ptr, ptr %13, align 8, !tbaa !23
  %62 = load ptr, ptr %11, align 8, !tbaa !92
  call void @list_append(ptr noundef %61, ptr noundef %62)
  store i32 1, ptr %15, align 4
  br label %65

63:                                               ; preds = %57, %40, %29
  %64 = load ptr, ptr %14, align 8, !tbaa !84
  call void @free_priv(ptr noundef %64)
  call void @av_freep(ptr noundef %13)
  store i32 0, ptr %15, align 4
  br label %65

65:                                               ; preds = %63, %58, %19
  call void @llvm.lifetime.end.p0(i64 8, ptr %14) #10
  call void @llvm.lifetime.end.p0(i64 8, ptr %13) #10
  %66 = load i32, ptr %15, align 4
  switch i32 %66, label %68 [
    i32 0, label %67
    i32 1, label %67
  ]

67:                                               ; preds = %65, %65
  ret void

68:                                               ; preds = %65
  unreachable
}