; Function Attrs: nounwind uwtable
define internal void @read_priv(ptr noundef %0, ptr noundef %1, i32 noundef %2, ptr readnone captures(none) %3, ptr noundef captures(none) %4, i32 %5) #2 {
  %7 = alloca i32, align 4
  %8 = alloca ptr, align 8
  store i32 %2, ptr %7, align 4, !tbaa !12
  call void @llvm.lifetime.start.p0(i64 8, ptr nonnull %8) #9
  %9 = tail call noalias ptr @av_mallocz(i64 noundef 56) #9
  store ptr %9, ptr %8, align 8, !tbaa !7
  %.not = icmp eq ptr %9, null
  br i1 %.not, label %31, label %10

10:                                               ; preds = %6
  %11 = getelementptr inbounds nuw i8, ptr %9, i64 16
  %12 = call fastcc i32 @decode_str(ptr noundef %0, ptr noundef %1, i32 noundef 0, ptr noundef %11, ptr noundef %7)
  %13 = icmp slt i32 %12, 0
  br i1 %13, label %29, label %14

14:                                               ; preds = %10
  %15 = load i32, ptr %7, align 4, !tbaa !12
  %16 = sext i32 %15 to i64
  %17 = tail call noalias ptr @av_malloc(i64 noundef %16) #9
  %18 = getelementptr inbounds nuw i8, ptr %9, i64 24
  store ptr %17, ptr %18, align 8, !tbaa !81
  %.not12 = icmp eq ptr %17, null
  br i1 %.not12, label %29, label %19

19:                                               ; preds = %14
  %20 = getelementptr inbounds nuw i8, ptr %9, i64 32
  store i32 %15, ptr %20, align 8, !tbaa !80
  %21 = tail call i32 @avio_read(ptr noundef %1, ptr noundef nonnull %17, i32 noundef %15) #9
  %22 = load i32, ptr %20, align 8, !tbaa !80
  %.not13 = icmp eq i32 %21, %22
  br i1 %.not13, label %23, label %29

23:                                               ; preds = %19
  store ptr @.str.69, ptr %9, align 8, !tbaa !47
  %24 = getelementptr inbounds nuw i8, ptr %4, i64 8
  %25 = load ptr, ptr %24, align 8, !tbaa !94
  %.not.i = icmp eq ptr %25, null
  br i1 %.not.i, label %28, label %26

26:                                               ; preds = %23
  %27 = getelementptr inbounds nuw i8, ptr %25, i64 8
  store ptr %9, ptr %27, align 8, !tbaa !50
  br label %list_append.exit

28:                                               ; preds = %23
  store ptr %9, ptr %4, align 8, !tbaa !32
  br label %list_append.exit

list_append.exit:                                 ; preds = %26, %28
  store ptr %9, ptr %24, align 8, !tbaa !94
  br label %31

29:                                               ; preds = %19, %14, %10
  tail call void @av_freep(ptr noundef nonnull %11) #9
  %30 = getelementptr inbounds nuw i8, ptr %9, i64 24
  tail call void @av_freep(ptr noundef nonnull %30) #9
  call void @av_freep(ptr noundef nonnull %8) #9
  br label %31

31:                                               ; preds = %6, %29, %list_append.exit
  call void @llvm.lifetime.end.p0(i64 8, ptr nonnull %8) #9
  ret void
}